target datalayout = "e-m:e-p270:32:32-p271:32:32-p272:64:64-i64:64-i128:128-f80:128-n8:16:32:64-S128"
target triple = "x86_64-pc-linux-gnu"

%struct.Ivy_Store_t_ = type { i32, i32, i32, i32, [256 x %struct.Ivy_Cut_t_] }
%struct.Ivy_Cut_t_ = type { i32, i16, i16, [6 x i32], i32 }

; Function Attrs: nounwind uwtable
define internal i32 @Ivy_CutCheckDominance(ptr noundef %0, ptr noundef %1) #0 {
  %3 = alloca i32, align 4
  %4 = alloca ptr, align 8
  %5 = alloca ptr, align 8
  %6 = alloca i32, align 4
  %7 = alloca i32, align 4
  store ptr %0, ptr %4, align 8
  store ptr %1, ptr %5, align 8
  store i32 0, ptr %6, align 4
  br label %8

8:                                                ; preds = %51, %2
  %9 = load i32, ptr %6, align 4
  %10 = load ptr, ptr %4, align 8
  %11 = getelementptr inbounds %struct.Ivy_Cut_t_, ptr %10, i32 0, i32 1
  %12 = load i16, ptr %11, align 4
  %13 = sext i16 %12 to i32
  %14 = icmp slt i32 %9, %13
  br i1 %14, label %15, label %54

15:                                               ; preds = %8
  store i32 0, ptr %7, align 4
  br label %16

16:                                               ; preds = %39, %15
  %17 = load i32, ptr %7, align 4
  %18 = load ptr, ptr %5, align 8
  %19 = getelementptr inbounds %struct.Ivy_Cut_t_, ptr %18, i32 0, i32 1
  %20 = load i16, ptr %19, align 4
  %21 = sext i16 %20 to i32
  %22 = icmp slt i32 %17, %21
  br i1 %22, label %23, label %42

23:                                               ; preds = %16
  %24 = load ptr, ptr %4, align 8
  %25 = getelementptr inbounds %struct.Ivy_Cut_t_, ptr %24, i32 0, i32 3
  %26 = load i32, ptr %6, align 4
  %27 = sext i32 %26 to i64
  %28 = getelementptr inbounds [6 x i32], ptr %25, i64 0, i64 %27
  %29 = load i32, ptr %28, align 4
  %30 = load ptr, ptr %5, align 8
  %31 = getelementptr inbounds %struct.Ivy_Cut_t_, ptr %30, i32 0, i32 3
  %32 = load i32, ptr %7, align 4
  %33 = sext i32 %32 to i64
  %34 = getelementptr inbounds [6 x i32], ptr %31, i64 0, i64 %33
  %35 = load i32, ptr %34, align 4
  %36 = icmp eq i32 %29, %35
  br i1 %36, label %37, label %38

37:                                               ; preds = %23
  br label %42

38:                                               ; preds = %23
  br label %39

39:                                               ; preds = %38
  %40 = load i32, ptr %7, align 4
  %41 = add nsw i32 %40, 1
  store i32 %41, ptr %7, align 4
  br label %16, !llvm.loop !26

42:                                               ; preds = %37, %16
  %43 = load i32, ptr %7, align 4
  %44 = load ptr, ptr %5, align 8
  %45 = getelementptr inbounds %struct.Ivy_Cut_t_, ptr %44, i32 0, i32 1
  %46 = load i16, ptr %45, align 4
  %47 = sext i16 %46 to i32
  %48 = icmp eq i32 %43, %47
  br i1 %48, label %49, label %50

49:                                               ; preds = %42
  store i32 0, ptr %3, align 4
  br label %55

50:                                               ; preds = %42
  br label %51

51:                                               ; preds = %50
  %52 = load i32, ptr %6, align 4
  %53 = add nsw i32 %52, 1
  store i32 %53, ptr %6, align 4
  br label %8, !llvm.loop !27

54:                                               ; preds = %8
  store i32 1, ptr %3, align 4
  br label %55

55:                                               ; preds = %54, %49
  %56 = load i32, ptr %3, align 4
  ret i32 %56
}

; Function Attrs: nounwind uwtable
define i32 @Ivy_NodeCutFindOrAddFilter(ptr noundef %0, ptr noundef %1) #0 {
  %3 = alloca i32, align 4
  %4 = alloca ptr, align 8
  %5 = alloca ptr, align 8
  %6 = alloca ptr, align 8
  %7 = alloca i32, align 4
  %8 = alloca i32, align 4
  store ptr %0, ptr %4, align 8
  store ptr %1, ptr %5, align 8
  store i32 0, ptr %7, align 4
  br label %9

9:                                                ; preds = %135, %2
  %10 = load i32, ptr %7, align 4
  %11 = load ptr, ptr %4, align 8
  %12 = getelementptr inbounds %struct.Ivy_Store_t_, ptr %11, i32 0, i32 0
  %13 = load i32, ptr %12, align 4
  %14 = icmp slt i32 %10, %13
  br i1 %14, label %15, label %138

15:                                               ; preds = %9
  %16 = load ptr, ptr %4, align 8
  %17 = getelementptr inbounds %struct.Ivy_Store_t_, ptr %16, i32 0, i32 4
  %18 = getelementptr inbounds [256 x %struct.Ivy_Cut_t_], ptr %17, i64 0, i64 0
  %19 = load i32, ptr %7, align 4
  %20 = sext i32 %19 to i64
  %21 = getelementptr inbounds %struct.Ivy_Cut_t_, ptr %18, i64 %20
  store ptr %21, ptr %6, align 8
  %22 = load ptr, ptr %6, align 8
  %23 = getelementptr inbounds %struct.Ivy_Cut_t_, ptr %22, i32 0, i32 1
  %24 = load i16, ptr %23, align 4
  %25 = sext i16 %24 to i32
  %26 = icmp eq i32 %25, 0
  br i1 %26, label %27, label %28

27:                                               ; preds = %15
  br label %135

28:                                               ; preds = %15
  %29 = load ptr, ptr %6, align 8
  %30 = getelementptr inbounds %struct.Ivy_Cut_t_, ptr %29, i32 0, i32 1
  %31 = load i16, ptr %30, align 4
  %32 = sext i16 %31 to i32
  %33 = load ptr, ptr %5, align 8
  %34 = getelementptr inbounds %struct.Ivy_Cut_t_, ptr %33, i32 0, i32 1
  %35 = load i16, ptr %34, align 4
  %36 = sext i16 %35 to i32
  %37 = icmp eq i32 %32, %36
  br i1 %37, label %38, label %83

38:                                               ; preds = %28
  %39 = load ptr, ptr %6, align 8
  %40 = getelementptr inbounds %struct.Ivy_Cut_t_, ptr %39, i32 0, i32 4
  %41 = load i32, ptr %40, align 4
  %42 = load ptr, ptr %5, align 8
  %43 = getelementptr inbounds %struct.Ivy_Cut_t_, ptr %42, i32 0, i32 4
  %44 = load i32, ptr %43, align 4
  %45 = icmp eq i32 %41, %44
  br i1 %45, label %46, label %82

46:                                               ; preds = %38
  store i32 0, ptr %8, align 4
  br label %47

47:                                               ; preds = %70, %46
  %48 = load i32, ptr %8, align 4
  %49 = load ptr, ptr %5, align 8
  %50 = getelementptr inbounds %struct.Ivy_Cut_t_, ptr %49, i32 0, i32 1
  %51 = load i16, ptr %50, align 4
  %52 = sext i16 %51 to i32
  %53 = icmp slt i32 %48, %52
  br i1 %53, label %54, label %73

54:                                               ; preds = %47
  %55 = load ptr, ptr %6, align 8
  %56 = getelementptr inbounds %struct.Ivy_Cut_t_, ptr %55, i32 0, i32 3
  %57 = load i32, ptr %8, align 4
  %58 = sext i32 %57 to i64
  %59 = getelementptr inbounds [6 x i32], ptr %56, i64 0, i64 %58
  %60 = load i32, ptr %59, align 4
  %61 = load ptr, ptr %5, align 8
  %62 = getelementptr inbounds %struct.Ivy_Cut_t_, ptr %61, i32 0, i32 3
  %63 = load i32, ptr %8, align 4
  %64 = sext i32 %63 to i64
  %65 = getelementptr inbounds [6 x i32], ptr %62, i64 0, i64 %64
  %66 = load i32, ptr %65, align 4
  %67 = icmp ne i32 %60, %66
  br i1 %67, label %68, label %69

68:                                               ; preds = %54
  br label %73

69:                                               ; preds = %54
  br label %70

70:                                               ; preds = %69
  %71 = load i32, ptr %8, align 4
  %72 = add nsw i32 %71, 1
  store i32 %72, ptr %8, align 4
  br label %47, !llvm.loop !24

73:                                               ; preds = %68, %47
  %74 = load i32, ptr %8, align 4
  %75 = load ptr, ptr %5, align 8
  %76 = getelementptr inbounds %struct.Ivy_Cut_t_, ptr %75, i32 0, i32 1
  %77 = load i16, ptr %76, align 4
  %78 = sext i16 %77 to i32
  %79 = icmp eq i32 %74, %78
  br i1 %79, label %80, label %81

80:                                               ; preds = %73
  store i32 1, ptr %3, align 4
  br label %150

81:                                               ; preds = %73
  br label %82

82:                                               ; preds = %81, %38
  br label %135

83:                                               ; preds = %28
  %84 = load ptr, ptr %6, align 8
  %85 = getelementptr inbounds %struct.Ivy_Cut_t_, ptr %84, i32 0, i32 1
  %86 = load i16, ptr %85, align 4
  %87 = sext i16 %86 to i32
  %88 = load ptr, ptr %5, align 8
  %89 = getelementptr inbounds %struct.Ivy_Cut_t_, ptr %88, i32 0, i32 1
  %90 = load i16, ptr %89, align 4
  %91 = sext i16 %90 to i32
  %92 = icmp slt i32 %87, %91
  br i1 %92, label %93, label %113

93:                                               ; preds = %83
  %94 = load ptr, ptr %6, align 8
  %95 = getelementptr inbounds %struct.Ivy_Cut_t_, ptr %94, i32 0, i32 4
  %96 = load i32, ptr %95, align 4
  %97 = load ptr, ptr %5, align 8
  %98 = getelementptr inbounds %struct.Ivy_Cut_t_, ptr %97, i32 0, i32 4
  %99 = load i32, ptr %98, align 4
  %100 = and i32 %96, %99
  %101 = load ptr, ptr %6, align 8
  %102 = getelementptr inbounds %struct.Ivy_Cut_t_, ptr %101, i32 0, i32 4
  %103 = load i32, ptr %102, align 4
  %104 = icmp ne i32 %100, %103
  br i1 %104, label %105, label %106

105:                                              ; preds = %93
  br label %135

106:                                              ; preds = %93
  %107 = load ptr, ptr %6, align 8
  %108 = load ptr, ptr %5, align 8
  %109 = call i32 @Ivy_CutCheckDominance(ptr noundef %107, ptr noundef %108)
  %110 = icmp ne i32 %109, 0
  br i1 %110, label %111, label %112

111:                                              ; preds = %106
  store i32 1, ptr %3, align 4
  br label %150

112:                                              ; preds = %106
  br label %135

113:                                              ; preds = %83
  %114 = load ptr, ptr %6, align 8
  %115 = getelementptr inbounds %struct.Ivy_Cut_t_, ptr %114, i32 0, i32 4
  %116 = load i32, ptr %115, align 4
  %117 = load ptr, ptr %5, align 8
  %118 = getelementptr inbounds %struct.Ivy_Cut_t_, ptr %117, i32 0, i32 4
  %119 = load i32, ptr %118, align 4
  %120 = and i32 %116, %119
  %121 = load ptr, ptr %5, align 8
  %122 = getelementptr inbounds %struct.Ivy_Cut_t_, ptr %121, i32 0, i32 4
  %123 = load i32, ptr %122, align 4
  %124 = icmp ne i32 %120, %123
  br i1 %124, label %125, label %126

125:                                              ; preds = %113
  br label %135

126:                                              ; preds = %113
  %127 = load ptr, ptr %5, align 8
  %128 = load ptr, ptr %6, align 8
  %129 = call i32 @Ivy_CutCheckDominance(ptr noundef %127, ptr noundef %128)
  %130 = icmp ne i32 %129, 0
  br i1 %130, label %131, label %134

131:                                              ; preds = %126
  %132 = load ptr, ptr %6, align 8
  %133 = getelementptr inbounds %struct.Ivy_Cut_t_, ptr %132, i32 0, i32 1
  store i16 0, ptr %133, align 4
  br label %134

134:                                              ; preds = %131, %126
  br label %135

135:                                              ; preds = %134, %125, %112, %105, %82, %27
  %136 = load i32, ptr %7, align 4
  %137 = add nsw i32 %136, 1
  store i32 %137, ptr %7, align 4
  br label %9, !llvm.loop !25

138:                                              ; preds = %9
  %139 = load ptr, ptr %4, align 8
  %140 = getelementptr inbounds %struct.Ivy_Store_t_, ptr %139, i32 0, i32 4
  %141 = getelementptr inbounds [256 x %struct.Ivy_Cut_t_], ptr %140, i64 0, i64 0
  %142 = load ptr, ptr %4, align 8
  %143 = getelementptr inbounds %struct.Ivy_Store_t_, ptr %142, i32 0, i32 0
  %144 = load i32, ptr %143, align 4
  %145 = add nsw i32 %144, 1
  store i32 %145, ptr %143, align 4
  %146 = sext i32 %144 to i64
  %147 = getelementptr inbounds %struct.Ivy_Cut_t_, ptr %141, i64 %146
  store ptr %147, ptr %6, align 8
  %148 = load ptr, ptr %6, align 8
  %149 = load ptr, ptr %5, align 8
  call void @llvm.memcpy.p0.p0.i64(ptr align 4 %148, ptr align 4 %149, i64 36, i1 false)
  store i32 0, ptr %3, align 4
  br label %150

150:                                              ; preds = %138, %111, %80
  %151 = load i32, ptr %3, align 4
  ret i32 %151
}