; Function Attrs: nofree norecurse nosync nounwind memory(argmem: readwrite) uwtable
define range(i32 0, 2) i32 @Ivy_NodeCutFindOrAddFilter(ptr noundef captures(none) %0, ptr noundef readonly captures(none) %1) local_unnamed_addr #6 {
  %3 = load i32, ptr %0, align 4
  %4 = icmp sgt i32 %3, 0
  br i1 %4, label %.lr.ph86, label %._crit_edge87

.lr.ph86:                                         ; preds = %2
  %5 = getelementptr inbounds nuw i8, ptr %0, i64 16
  %6 = getelementptr inbounds nuw i8, ptr %1, i64 4
  %7 = getelementptr inbounds nuw i8, ptr %1, i64 32
  %8 = getelementptr inbounds nuw i8, ptr %1, i64 8
  %wide.trip.count99 = zext nneg i32 %3 to i64
  br label %9

9:                                                ; preds = %.lr.ph86, %Ivy_CutCheckDominance.exit60
  %indvars.iv96 = phi i64 [ 0, %.lr.ph86 ], [ %indvars.iv.next97, %Ivy_CutCheckDominance.exit60 ]
  %10 = getelementptr inbounds nuw %struct.Ivy_Cut_t_, ptr %5, i64 %indvars.iv96
  %11 = getelementptr inbounds nuw i8, ptr %10, i64 4
  %12 = load i16, ptr %11, align 4
  %13 = icmp eq i16 %12, 0
  br i1 %13, label %Ivy_CutCheckDominance.exit60, label %14

14:                                               ; preds = %9
  %15 = load i16, ptr %6, align 4
  %16 = icmp eq i16 %12, %15
  br i1 %16, label %17, label %32

17:                                               ; preds = %14
  %18 = getelementptr inbounds nuw i8, ptr %10, i64 32
  %19 = load i32, ptr %18, align 4
  %20 = load i32, ptr %7, align 4
  %21 = icmp eq i32 %19, %20
  br i1 %21, label %.preheader, label %Ivy_CutCheckDominance.exit60

.preheader:                                       ; preds = %17
  %22 = getelementptr inbounds nuw i8, ptr %10, i64 8
  %23 = sext i16 %12 to i32
  %24 = icmp sgt i16 %12, 0
  br i1 %24, label %.lr.ph.preheader, label %._crit_edge

.lr.ph.preheader:                                 ; preds = %.preheader
  %wide.trip.count = zext nneg i32 %23 to i64
  br label %.lr.ph

.lr.ph:                                           ; preds = %.lr.ph.preheader, %29
  %indvars.iv = phi i64 [ 0, %.lr.ph.preheader ], [ %indvars.iv.next, %29 ]
  %25 = getelementptr inbounds nuw [6 x i32], ptr %22, i64 0, i64 %indvars.iv
  %26 = load i32, ptr %25, align 4
  %27 = getelementptr inbounds nuw [6 x i32], ptr %8, i64 0, i64 %indvars.iv
  %28 = load i32, ptr %27, align 4
  %.not44 = icmp eq i32 %26, %28
  br i1 %.not44, label %29, label %._crit_edge.loopexit

29:                                               ; preds = %.lr.ph
  %indvars.iv.next = add nuw nsw i64 %indvars.iv, 1
  %exitcond.not = icmp eq i64 %indvars.iv.next, %wide.trip.count
  br i1 %exitcond.not, label %Ivy_CutCheckDominance.exit.thread64, label %.lr.ph, !llvm.loop !24

._crit_edge.loopexit:                             ; preds = %.lr.ph
  %30 = trunc nuw nsw i64 %indvars.iv to i32
  br label %._crit_edge

._crit_edge:                                      ; preds = %._crit_edge.loopexit, %.preheader
  %.0.lcssa = phi i32 [ 0, %.preheader ], [ %30, %._crit_edge.loopexit ]
  %31 = icmp eq i32 %.0.lcssa, %23
  br i1 %31, label %Ivy_CutCheckDominance.exit.thread64, label %Ivy_CutCheckDominance.exit60

32:                                               ; preds = %14
  %33 = icmp slt i16 %12, %15
  %34 = getelementptr inbounds nuw i8, ptr %10, i64 32
  %35 = load i32, ptr %34, align 4
  %36 = load i32, ptr %7, align 4
  %37 = and i32 %36, %35
  br i1 %33, label %38, label %53

38:                                               ; preds = %32
  %.not42 = icmp eq i32 %37, %35
  br i1 %.not42, label %39, label %Ivy_CutCheckDominance.exit60

39:                                               ; preds = %38
  %wide.trip.count30.i = sext i16 %12 to i64
  %40 = icmp sgt i16 %12, 0
  br i1 %40, label %.preheader.lr.ph.i, label %Ivy_CutCheckDominance.exit.thread64

.preheader.lr.ph.i:                               ; preds = %39
  %41 = getelementptr inbounds nuw i8, ptr %10, i64 8
  %42 = sext i16 %15 to i32
  %wide.trip.count.i = zext nneg i32 %42 to i64
  br label %.preheader.us.i

.preheader.us.i:                                  ; preds = %52, %.preheader.lr.ph.i
  %indvars.iv27.i = phi i64 [ 0, %.preheader.lr.ph.i ], [ %indvars.iv.next28.i, %52 ]
  %43 = getelementptr inbounds nuw [6 x i32], ptr %41, i64 0, i64 %indvars.iv27.i
  %44 = load i32, ptr %43, align 4
  br label %45

45:                                               ; preds = %49, %.preheader.us.i
  %indvars.iv.i = phi i64 [ 0, %.preheader.us.i ], [ %indvars.iv.next.i, %49 ]
  %46 = getelementptr inbounds nuw [6 x i32], ptr %8, i64 0, i64 %indvars.iv.i
  %47 = load i32, ptr %46, align 4
  %48 = icmp eq i32 %44, %47
  br i1 %48, label %._crit_edge.us.i, label %49

49:                                               ; preds = %45
  %indvars.iv.next.i = add nuw nsw i64 %indvars.iv.i, 1
  %exitcond.not.i = icmp eq i64 %indvars.iv.next.i, %wide.trip.count.i
  br i1 %exitcond.not.i, label %Ivy_CutCheckDominance.exit60, label %45, !llvm.loop !25

._crit_edge.us.i:                                 ; preds = %45
  %50 = trunc nuw nsw i64 %indvars.iv.i to i32
  %51 = icmp eq i32 %50, %42
  br i1 %51, label %Ivy_CutCheckDominance.exit60, label %52

52:                                               ; preds = %._crit_edge.us.i
  %indvars.iv.next28.i = add nuw nsw i64 %indvars.iv27.i, 1
  %exitcond31.not.i = icmp eq i64 %indvars.iv.next28.i, %wide.trip.count30.i
  br i1 %exitcond31.not.i, label %Ivy_CutCheckDominance.exit.thread64, label %.preheader.us.i, !llvm.loop !26

53:                                               ; preds = %32
  %.not = icmp eq i32 %37, %36
  br i1 %.not, label %54, label %Ivy_CutCheckDominance.exit60

54:                                               ; preds = %53
  %wide.trip.count30.i45 = sext i16 %15 to i64
  %55 = icmp sgt i16 %15, 0
  br i1 %55, label %.preheader.lr.ph.i47, label %.loopexit

.preheader.lr.ph.i47:                             ; preds = %54
  %56 = sext i16 %12 to i32
  %57 = getelementptr inbounds nuw i8, ptr %10, i64 8
  %wide.trip.count.i51 = zext nneg i32 %56 to i64
  br label %.preheader.us.i52

.preheader.us.i52:                                ; preds = %67, %.preheader.lr.ph.i47
  %indvars.iv27.i53 = phi i64 [ 0, %.preheader.lr.ph.i47 ], [ %indvars.iv.next28.i58, %67 ]
  %58 = getelementptr inbounds nuw [6 x i32], ptr %8, i64 0, i64 %indvars.iv27.i53
  %59 = load i32, ptr %58, align 4
  br label %60

60:                                               ; preds = %64, %.preheader.us.i52
  %indvars.iv.i54 = phi i64 [ 0, %.preheader.us.i52 ], [ %indvars.iv.next.i55, %64 ]
  %61 = getelementptr inbounds nuw [6 x i32], ptr %57, i64 0, i64 %indvars.iv.i54
  %62 = load i32, ptr %61, align 4
  %63 = icmp eq i32 %59, %62
  br i1 %63, label %._crit_edge.us.i57, label %64

64:                                               ; preds = %60
  %indvars.iv.next.i55 = add nuw nsw i64 %indvars.iv.i54, 1
  %exitcond.not.i56 = icmp eq i64 %indvars.iv.next.i55, %wide.trip.count.i51
  br i1 %exitcond.not.i56, label %Ivy_CutCheckDominance.exit60, label %60, !llvm.loop !25

._crit_edge.us.i57:                               ; preds = %60
  %65 = trunc nuw nsw i64 %indvars.iv.i54 to i32
  %66 = icmp eq i32 %65, %56
  br i1 %66, label %Ivy_CutCheckDominance.exit60, label %67

67:                                               ; preds = %._crit_edge.us.i57
  %indvars.iv.next28.i58 = add nuw nsw i64 %indvars.iv27.i53, 1
  %exitcond31.not.i59 = icmp eq i64 %indvars.iv.next28.i58, %wide.trip.count30.i45
  br i1 %exitcond31.not.i59, label %.loopexit, label %.preheader.us.i52, !llvm.loop !26

.loopexit:                                        ; preds = %67, %54
  store i16 0, ptr %11, align 4
  br label %Ivy_CutCheckDominance.exit60

Ivy_CutCheckDominance.exit60:                     ; preds = %._crit_edge.us.i57, %._crit_edge.us.i, %64, %49, %.loopexit, %53, %38, %17, %._crit_edge, %9
  %indvars.iv.next97 = add nuw nsw i64 %indvars.iv96, 1
  %exitcond100.not = icmp eq i64 %indvars.iv.next97, %wide.trip.count99
  br i1 %exitcond100.not, label %._crit_edge87, label %9, !llvm.loop !27

._crit_edge87:                                    ; preds = %Ivy_CutCheckDominance.exit60, %2
  %68 = getelementptr inbounds nuw i8, ptr %0, i64 16
  %69 = add nsw i32 %3, 1
  store i32 %69, ptr %0, align 4
  %70 = sext i32 %3 to i64
  %71 = getelementptr inbounds %struct.Ivy_Cut_t_, ptr %68, i64 %70
  tail call void @llvm.memcpy.p0.p0.i64(ptr noundef nonnull align 4 dereferenceable(36) %71, ptr noundef nonnull align 4 dereferenceable(36) %1, i64 36, i1 false)
  br label %Ivy_CutCheckDominance.exit.thread64

Ivy_CutCheckDominance.exit.thread64:              ; preds = %39, %._crit_edge, %52, %29, %._crit_edge87
  %.037 = phi i32 [ 0, %._crit_edge87 ], [ 1, %29 ], [ 1, %52 ], [ 1, %._crit_edge ], [ 1, %39 ]
  ret i32 %.037
}